; Function Attrs: mustprogress uwtable
define void @_ZN13IlmThread_3_29TaskGroup13finishOneTaskEv(ptr nocapture noundef nonnull readonly align 8 dereferenceable(8) %this) local_unnamed_addr #0 align 2 {
entry:
  %0 = load ptr, ptr %this, align 8
  %1 = atomicrmw sub ptr %0, i32 1 seq_cst, align 4
  %cmp.i = icmp eq i32 %1, 1
  br i1 %cmp.i, label %if.then.i, label %_ZN13IlmThread_3_29TaskGroup4Data10removeTaskEv.exit

if.then.i:                                        ; preds = %entry
  %isEmpty.i = getelementptr inbounds i8, ptr %0, i64 8
  tail call void @_ZN13IlmThread_3_29Semaphore4postEv(ptr noundef nonnull align 8 dereferenceable(40) %isEmpty.i)
  br label %_ZN13IlmThread_3_29TaskGroup4Data10removeTaskEv.exit

_ZN13IlmThread_3_29TaskGroup4Data10removeTaskEv.exit: ; preds = %entry, %if.then.i
  %inFlight.i = getelementptr inbounds i8, ptr %0, i64 4
  %2 = atomicrmw sub ptr %inFlight.i, i32 1 seq_cst, align 4
  ret void
}